; Function Attrs: null_pointer_is_valid sspstrong uwtable
define internal noundef zeroext i1 @dissect_prp_redundancy_control_trailer_heur(ptr noundef %0, ptr readnone captures(none) %1, ptr noundef %2, ptr noundef readonly captures(address_is_null) %3) #0 {
  %5 = tail call i32 @tvb_reported_length(ptr noundef %0)
  %6 = add i32 %5, -4
  %7 = add i32 %5, -2
  %8 = tail call zeroext i1 @tvb_bytes_exist(ptr noundef %0, i32 noundef %7, i32 noundef 2)
  %9 = icmp ne ptr %3, null
  %or.cond93.not.i = and i1 %9, %8
  br i1 %or.cond93.not.i, label %10, label %dissect_prp_redundancy_control_trailer.exit

10:                                               ; preds = %4
  %11 = load i32, ptr %3, align 4
  %.not3.i = icmp slt i32 %6, 0
  br i1 %.not3.i, label %.loopexit.i, label %.lr.ph.i

.lr.ph.i:                                         ; preds = %10, %22
  %.0834.i = phi i32 [ %23, %22 ], [ 0, %10 ]
  %12 = sub i32 %7, %.0834.i
  %13 = tail call zeroext i16 @tvb_get_ntohs(ptr noundef %0, i32 noundef %12)
  %14 = tail call zeroext i16 @tvb_get_ntohs(ptr noundef %0, i32 noundef %12)
  %15 = and i16 %14, 4095
  %16 = zext nneg i16 %15 to i32
  %17 = sub i32 %11, %.0834.i
  %18 = icmp eq i32 %17, %16
  %19 = and i16 %13, -8192
  %or.cond.i = icmp eq i16 %19, -24576
  %or.cond90.i = select i1 %18, i1 %or.cond.i, i1 false
  br i1 %or.cond90.i, label %20, label %22

20:                                               ; preds = %.lr.ph.i
  %21 = sub i32 %6, %.0834.i
  br label %.loopexit.i

22:                                               ; preds = %.lr.ph.i
  %23 = add i32 %.0834.i, 1
  %.not.i = icmp sgt i32 %23, %6
  br i1 %.not.i, label %.loopexit.i, label %.lr.ph.i, !llvm.loop !6

.loopexit.i:                                      ; preds = %22, %20, %10
  %.080.i = phi i32 [ %21, %20 ], [ 0, %10 ], [ 0, %22 ]
  %.079.i = phi i32 [ 4, %20 ], [ 0, %10 ], [ 0, %22 ]
  %24 = tail call zeroext i16 @tvb_get_ntohs(ptr noundef %0, i32 noundef %6)
  %25 = tail call zeroext i16 @tvb_get_ntohs(ptr noundef %0, i32 noundef %6)
  %26 = and i16 %25, 4095
  %27 = tail call zeroext i16 @tvb_get_ntohs(ptr noundef %0, i32 noundef %7)
  %28 = icmp eq i16 %27, -30469
  %29 = and i16 %24, -8192
  %or.cond5.i = icmp eq i16 %29, -24576
  %or.cond91.i = select i1 %28, i1 %or.cond5.i, i1 false
  %30 = add i32 %5, -6
  %.181.i = select i1 %or.cond91.i, i32 %30, i32 %.080.i
  %.1.i = select i1 %or.cond91.i, i32 6, i32 %.079.i
  %.not89.i = icmp eq i32 %.1.i, 0
  br i1 %.not89.i, label %dissect_prp_redundancy_control_trailer.exit, label %31

31:                                               ; preds = %.loopexit.i
  %32 = load i32, ptr @proto_prp, align 4
  %33 = tail call ptr @proto_tree_add_item(ptr noundef %2, i32 noundef %32, ptr noundef %0, i32 noundef %.181.i, i32 noundef %.1.i, i32 noundef 0)
  %34 = load i32, ptr @ett_prp_redundancy_control_trailer, align 4
  %35 = tail call ptr @proto_item_add_subtree(ptr noundef %33, i32 noundef %34)
  %36 = icmp eq i32 %.1.i, 4
  %37 = load i32, ptr @hf_prp_redundancy_control_trailer_version, align 4
  br i1 %36, label %38, label %40

38:                                               ; preds = %31
  %39 = tail call ptr @proto_tree_add_string(ptr noundef %35, i32 noundef %37, ptr noundef %0, i32 noundef %.181.i, i32 noundef 4, ptr noundef nonnull @.str.20)
  br label %42

40:                                               ; preds = %31
  %41 = tail call ptr @proto_tree_add_string(ptr noundef %35, i32 noundef %37, ptr noundef %0, i32 noundef %.181.i, i32 noundef %.1.i, ptr noundef nonnull @.str.21)
  br label %42

42:                                               ; preds = %40, %38
  %.082.i = phi ptr [ %39, %38 ], [ %41, %40 ]
  %.not.i.i = icmp eq ptr %.082.i, null
  br i1 %.not.i.i, label %proto_item_set_generated.exit.i, label %43

43:                                               ; preds = %42
  %44 = getelementptr inbounds nuw i8, ptr %.082.i, i64 40
  %45 = load ptr, ptr %44, align 8
  %.not5.i.i = icmp eq ptr %45, null
  br i1 %.not5.i.i, label %proto_item_set_generated.exit.i, label %46

46:                                               ; preds = %43
  %47 = getelementptr inbounds nuw i8, ptr %45, i64 28
  %48 = load i32, ptr %47, align 4
  %49 = or i32 %48, 2
  store i32 %49, ptr %47, align 4
  br label %proto_item_set_generated.exit.i

proto_item_set_generated.exit.i:                  ; preds = %46, %43, %42
  %50 = load i32, ptr @hf_prp_redundancy_control_trailer_sequence_nr, align 4
  %51 = tail call ptr @proto_tree_add_item(ptr noundef %35, i32 noundef %50, ptr noundef %0, i32 noundef %.181.i, i32 noundef 2, i32 noundef 0)
  %52 = load i32, ptr @hf_prp_redundancy_control_trailer_lan, align 4
  %53 = add i32 %.181.i, 2
  %54 = tail call ptr @proto_tree_add_item(ptr noundef %35, i32 noundef %52, ptr noundef %0, i32 noundef %53, i32 noundef 2, i32 noundef 0)
  br i1 %36, label %55, label %58

55:                                               ; preds = %proto_item_set_generated.exit.i
  %56 = load i32, ptr @hf_prp_redundancy_control_trailer_size, align 4
  %57 = tail call ptr @proto_tree_add_item(ptr noundef %35, i32 noundef %56, ptr noundef %0, i32 noundef %53, i32 noundef 2, i32 noundef 0)
  br label %dissect_prp_redundancy_control_trailer.exit

58:                                               ; preds = %proto_item_set_generated.exit.i
  %59 = zext nneg i16 %26 to i32
  %60 = icmp eq i32 %11, %59
  %61 = load i32, ptr @hf_prp_redundancy_control_trailer_size, align 4
  br i1 %60, label %62, label %64

62:                                               ; preds = %58
  %63 = tail call ptr (ptr, i32, ptr, i32, i32, i32, ptr, ...) @proto_tree_add_uint_format(ptr noundef %35, i32 noundef %61, ptr noundef %0, i32 noundef %53, i32 noundef 2, i32 noundef %11, ptr noundef nonnull @.str.22, i32 noundef %11)
  br label %66

64:                                               ; preds = %58
  %65 = tail call ptr (ptr, i32, ptr, i32, i32, i32, ptr, ...) @proto_tree_add_uint_format(ptr noundef %35, i32 noundef %61, ptr noundef %0, i32 noundef %53, i32 noundef 2, i32 noundef %59, ptr noundef nonnull @.str.23, i32 noundef %59, i32 noundef %11)
  br label %66

66:                                               ; preds = %64, %62
  %67 = load i32, ptr @hf_prp_redundancy_control_trailer_suffix, align 4
  %68 = add i32 %.181.i, 4
  %69 = tail call ptr @proto_tree_add_item(ptr noundef %35, i32 noundef %67, ptr noundef %0, i32 noundef %68, i32 noundef 2, i32 noundef 0)
  br label %dissect_prp_redundancy_control_trailer.exit

dissect_prp_redundancy_control_trailer.exit:      ; preds = %4, %.loopexit.i, %55, %66
  %70 = phi i1 [ false, %4 ], [ true, %55 ], [ true, %66 ], [ false, %.loopexit.i ]
  ret i1 %70
}